; Function Attrs: cold nounwind optsize uwtable
define internal noundef i32 @swf_read_close(ptr noundef readonly captures(none) %0) #2 {
  %2 = getelementptr inbounds nuw i8, ptr %0, i64 24
  %3 = load ptr, ptr %2, align 8, !tbaa !13
  %4 = getelementptr inbounds nuw i8, ptr %3, i64 32
  %5 = tail call i32 @inflateEnd(ptr noundef nonnull %4) #9
  %6 = getelementptr inbounds nuw i8, ptr %3, i64 16
  tail call void @av_freep(ptr noundef nonnull %6) #9
  %7 = getelementptr inbounds nuw i8, ptr %3, i64 24
  tail call void @av_freep(ptr noundef nonnull %7) #9
  %8 = getelementptr inbounds nuw i8, ptr %3, i64 8
  tail call void @avio_context_free(ptr noundef nonnull %8) #9
  ret i32 0
}